; Function Attrs: nounwind uwtable
define internal fastcc noundef ptr @_readScalarArrayOpExpr() unnamed_addr #0 {
  %1 = alloca i32, align 4
  %2 = tail call noundef ptr @palloc0(i64 noundef 48) #10
  store i32 20, ptr %2, align 4
  call void @llvm.lifetime.start.p0(i64 4, ptr nonnull %1) #10
  %3 = call ptr @pg_strtok(ptr noundef nonnull %1) #10
  %4 = call ptr @pg_strtok(ptr noundef nonnull %1) #10
  %5 = call i64 @strtoul(ptr noundef captures(none) %4, ptr noundef null, i32 noundef 10) #10
  %6 = trunc i64 %5 to i32
  %7 = getelementptr inbounds nuw i8, ptr %2, i64 4
  store i32 %6, ptr %7, align 4
  %8 = call ptr @pg_strtok(ptr noundef nonnull %1) #10
  %9 = call ptr @pg_strtok(ptr noundef nonnull %1) #10
  %10 = call i64 @strtoul(ptr noundef captures(none) %9, ptr noundef null, i32 noundef 10) #10
  %11 = trunc i64 %10 to i32
  %12 = getelementptr inbounds nuw i8, ptr %2, i64 8
  store i32 %11, ptr %12, align 8
  %13 = call ptr @pg_strtok(ptr noundef nonnull %1) #10
  %14 = call ptr @pg_strtok(ptr noundef nonnull %1) #10
  %15 = call i64 @strtoul(ptr noundef captures(none) %14, ptr noundef null, i32 noundef 10) #10
  %16 = trunc i64 %15 to i32
  %17 = getelementptr inbounds nuw i8, ptr %2, i64 12
  store i32 %16, ptr %17, align 4
  %18 = call ptr @pg_strtok(ptr noundef nonnull %1) #10
  %19 = call ptr @pg_strtok(ptr noundef nonnull %1) #10
  %20 = call i64 @strtoul(ptr noundef captures(none) %19, ptr noundef null, i32 noundef 10) #10
  %21 = trunc i64 %20 to i32
  %22 = getelementptr inbounds nuw i8, ptr %2, i64 16
  store i32 %21, ptr %22, align 8
  %23 = call ptr @pg_strtok(ptr noundef nonnull %1) #10
  %24 = call ptr @pg_strtok(ptr noundef nonnull %1) #10
  %25 = load i8, ptr %24, align 1
  %26 = icmp eq i8 %25, 116
  %27 = getelementptr inbounds nuw i8, ptr %2, i64 20
  %28 = zext i1 %26 to i8
  store i8 %28, ptr %27, align 4
  %29 = call ptr @pg_strtok(ptr noundef nonnull %1) #10
  %30 = call ptr @pg_strtok(ptr noundef nonnull %1) #10
  %31 = call i64 @strtoul(ptr noundef captures(none) %30, ptr noundef null, i32 noundef 10) #10
  %32 = trunc i64 %31 to i32
  %33 = getelementptr inbounds nuw i8, ptr %2, i64 24
  store i32 %32, ptr %33, align 8
  %34 = call ptr @pg_strtok(ptr noundef nonnull %1) #10
  %35 = call ptr @nodeRead(ptr noundef null, i32 noundef 0) #10
  %36 = getelementptr inbounds nuw i8, ptr %2, i64 32
  store ptr %35, ptr %36, align 8
  %37 = call ptr @pg_strtok(ptr noundef nonnull %1) #10
  %38 = call ptr @pg_strtok(ptr noundef nonnull %1) #10
  %39 = getelementptr inbounds nuw i8, ptr %2, i64 40
  store i32 -1, ptr %39, align 8
  call void @llvm.lifetime.end.p0(i64 4, ptr nonnull %1) #10
  ret ptr %2
}